target datalayout = "e-m:e-p270:32:32-p271:32:32-p272:64:64-i64:64-i128:128-f80:128-n8:16:32:64-S128"
target triple = "x86_64-unknown-linux-gnu"

%struct.hdr_histogram = type { i64, i64, i32, i32, i32, i32, i64, i32, i32, i64, i64, i32, double, i32, i64, ptr }

; Function Attrs: nounwind uwtable
define internal i64 @value_from_index(i32 noundef %bucket_index, i32 noundef %sub_bucket_index, i32 noundef %unit_magnitude) #0 {
entry:
  %bucket_index.addr = alloca i32, align 4
  %sub_bucket_index.addr = alloca i32, align 4
  %unit_magnitude.addr = alloca i32, align 4
  store i32 %bucket_index, ptr %bucket_index.addr, align 4
  store i32 %sub_bucket_index, ptr %sub_bucket_index.addr, align 4
  store i32 %unit_magnitude, ptr %unit_magnitude.addr, align 4
  %0 = load i32, ptr %sub_bucket_index.addr, align 4
  %conv = sext i32 %0 to i64
  %1 = load i32, ptr %bucket_index.addr, align 4
  %2 = load i32, ptr %unit_magnitude.addr, align 4
  %add = add nsw i32 %1, %2
  %sh_prom = zext i32 %add to i64
  %shl = shl i64 %conv, %sh_prom
  ret i64 %shl
}

; Function Attrs: nounwind uwtable
define dso_local i64 @hdr_value_at_index(ptr noundef %h, i32 noundef %index) #0 {
entry:
  %h.addr = alloca ptr, align 8
  %index.addr = alloca i32, align 4
  %bucket_index = alloca i32, align 4
  %sub_bucket_index = alloca i32, align 4
  store ptr %h, ptr %h.addr, align 8
  store i32 %index, ptr %index.addr, align 4
  %0 = load i32, ptr %index.addr, align 4
  %1 = load ptr, ptr %h.addr, align 8
  %sub_bucket_half_count_magnitude = getelementptr inbounds %struct.hdr_histogram, ptr %1, i32 0, i32 4
  %2 = load i32, ptr %sub_bucket_half_count_magnitude, align 8
  %shr = ashr i32 %0, %2
  %sub = sub nsw i32 %shr, 1
  store i32 %sub, ptr %bucket_index, align 4
  %3 = load i32, ptr %index.addr, align 4
  %4 = load ptr, ptr %h.addr, align 8
  %sub_bucket_half_count = getelementptr inbounds %struct.hdr_histogram, ptr %4, i32 0, i32 5
  %5 = load i32, ptr %sub_bucket_half_count, align 4
  %sub1 = sub nsw i32 %5, 1
  %and = and i32 %3, %sub1
  %6 = load ptr, ptr %h.addr, align 8
  %sub_bucket_half_count2 = getelementptr inbounds %struct.hdr_histogram, ptr %6, i32 0, i32 5
  %7 = load i32, ptr %sub_bucket_half_count2, align 4
  %add = add nsw i32 %and, %7
  store i32 %add, ptr %sub_bucket_index, align 4
  %8 = load i32, ptr %bucket_index, align 4
  %cmp = icmp slt i32 %8, 0
  br i1 %cmp, label %if.then, label %if.end

if.then:                                          ; preds = %entry
  %9 = load ptr, ptr %h.addr, align 8
  %sub_bucket_half_count3 = getelementptr inbounds %struct.hdr_histogram, ptr %9, i32 0, i32 5
  %10 = load i32, ptr %sub_bucket_half_count3, align 4
  %11 = load i32, ptr %sub_bucket_index, align 4
  %sub4 = sub nsw i32 %11, %10
  store i32 %sub4, ptr %sub_bucket_index, align 4
  store i32 0, ptr %bucket_index, align 4
  br label %if.end

if.end:                                           ; preds = %if.then, %entry
  %12 = load i32, ptr %bucket_index, align 4
  %13 = load i32, ptr %sub_bucket_index, align 4
  %14 = load ptr, ptr %h.addr, align 8
  %unit_magnitude = getelementptr inbounds %struct.hdr_histogram, ptr %14, i32 0, i32 2
  %15 = load i32, ptr %unit_magnitude, align 8
  %call = call i64 @value_from_index(i32 noundef %12, i32 noundef %13, i32 noundef %15)
  ret i64 %call
}