; Function Attrs: mustprogress nofree norecurse nosync nounwind willreturn memory(argmem: read) uwtable
define dso_local i64 @hdr_value_at_index(ptr nocapture noundef readonly %h, i32 noundef %index) local_unnamed_addr #0 {
entry:
  %sub_bucket_half_count_magnitude = getelementptr inbounds i8, ptr %h, i64 24
  %0 = load i32, ptr %sub_bucket_half_count_magnitude, align 8
  %shr = ashr i32 %index, %0
  %sub = add nsw i32 %shr, -1
  %sub_bucket_half_count = getelementptr inbounds i8, ptr %h, i64 28
  %1 = load i32, ptr %sub_bucket_half_count, align 4
  %sub1 = add nsw i32 %1, -1
  %and = and i32 %sub1, %index
  %cmp = icmp slt i32 %shr, 1
  %spec.select = select i1 %cmp, i32 0, i32 %sub
  %add = select i1 %cmp, i32 0, i32 %1
  %spec.select8 = add nsw i32 %and, %add
  %unit_magnitude = getelementptr inbounds i8, ptr %h, i64 16
  %2 = load i32, ptr %unit_magnitude, align 8
  %conv.i = sext i32 %spec.select8 to i64
  %add.i = add nsw i32 %spec.select, %2
  %sh_prom.i = zext nneg i32 %add.i to i64
  %shl.i = shl i64 %conv.i, %sh_prom.i
  ret i64 %shl.i
}